; Function Attrs: mustprogress uwtable
define hidden void @_ZN11doc_manager14verify_projectER11ast_managerRS_RK10bit_vectorRK3docS8_(ptr nocapture noundef nonnull readonly align 8 dereferenceable(1080) %this, ptr noundef nonnull align 8 dereferenceable(976) %m, ptr nocapture noundef nonnull readonly align 8 dereferenceable(1080) %dstm, ptr nocapture noundef nonnull readonly align 8 dereferenceable(16) %to_delete, ptr nocapture noundef nonnull readonly align 8 dereferenceable(88) %src, ptr nocapture noundef nonnull readonly align 8 dereferenceable(88) %dst) local_unnamed_addr #3 align 2 personality ptr @__gxx_personality_v0 {
entry:
  %fml1 = alloca %class.obj_ref, align 8
  %fml2 = alloca %class.obj_ref, align 8
  call void @_ZN11doc_manager10to_formulaER11ast_managerRK3doc(ptr nonnull sret(%class.obj_ref) align 8 %fml1, ptr noundef nonnull align 8 dereferenceable(1080) %this, ptr noundef nonnull align 8 dereferenceable(976) %m, ptr noundef nonnull align 8 dereferenceable(88) %src)
  invoke void @_ZN11doc_manager10to_formulaER11ast_managerRK3doc(ptr nonnull sret(%class.obj_ref) align 8 %fml2, ptr noundef nonnull align 8 dereferenceable(1080) %dstm, ptr noundef nonnull align 8 dereferenceable(976) %m, ptr noundef nonnull align 8 dereferenceable(88) %dst)
          to label %invoke.cont unwind label %lpad

invoke.cont:                                      ; preds = %entry
  invoke void @_ZN11doc_manager14project_renameER7obj_refI4expr11ast_managerERK10bit_vector(ptr noundef nonnull align 8 dereferenceable(1080) %this, ptr noundef nonnull align 8 dereferenceable(16) %fml2, ptr noundef nonnull align 8 dereferenceable(16) %to_delete)
          to label %invoke.cont3 unwind label %lpad2

invoke.cont3:                                     ; preds = %invoke.cont
  invoke void @_ZN11doc_manager14project_expandER7obj_refI4expr11ast_managerERK10bit_vector(ptr noundef nonnull align 8 dereferenceable(1080) %this, ptr noundef nonnull align 8 dereferenceable(16) %fml1, ptr noundef nonnull align 8 dereferenceable(16) %to_delete)
          to label %invoke.cont4 unwind label %lpad2

invoke.cont4:                                     ; preds = %invoke.cont3
  %0 = load ptr, ptr %fml1, align 8
  %1 = load ptr, ptr %fml2, align 8
  invoke void @_ZN11doc_manager11check_equivER11ast_managerP4exprS3_(ptr nonnull align 8 poison, ptr noundef nonnull align 8 dereferenceable(976) %m, ptr noundef %0, ptr noundef %1)
          to label %invoke.cont8 unwind label %lpad2

invoke.cont8:                                     ; preds = %invoke.cont4
  %2 = load ptr, ptr %fml2, align 8
  %tobool.not.i.i = icmp eq ptr %2, null
  br i1 %tobool.not.i.i, label %_ZN7obj_refI4expr11ast_managerED2Ev.exit, label %if.then.i.i.i

if.then.i.i.i:                                    ; preds = %invoke.cont8
  %m_manager.i.i = getelementptr inbounds i8, ptr %fml2, i64 8
  %3 = load ptr, ptr %m_manager.i.i, align 8
  %m_ref_count.i.i.i.i = getelementptr inbounds i8, ptr %2, i64 8
  %4 = load i32, ptr %m_ref_count.i.i.i.i, align 4
  %dec.i.i.i.i = add i32 %4, -1
  store i32 %dec.i.i.i.i, ptr %m_ref_count.i.i.i.i, align 4
  %cmp.i.i.i = icmp eq i32 %dec.i.i.i.i, 0
  br i1 %cmp.i.i.i, label %if.then2.i.i.i, label %_ZN7obj_refI4expr11ast_managerED2Ev.exit

if.then2.i.i.i:                                   ; preds = %if.then.i.i.i
  invoke void @_ZN11ast_manager11delete_nodeEP3ast(ptr noundef nonnull align 8 dereferenceable(976) %3, ptr noundef nonnull %2)
          to label %_ZN7obj_refI4expr11ast_managerED2Ev.exit unwind label %terminate.lpad.i

terminate.lpad.i:                                 ; preds = %if.then2.i.i.i
  %5 = landingpad { ptr, i32 }
          catch ptr null
  %6 = extractvalue { ptr, i32 } %5, 0
  call void @__clang_call_terminate(ptr %6) #17
  unreachable

_ZN7obj_refI4expr11ast_managerED2Ev.exit:         ; preds = %invoke.cont8, %if.then.i.i.i, %if.then2.i.i.i
  %7 = load ptr, ptr %fml1, align 8
  %tobool.not.i.i5 = icmp eq ptr %7, null
  br i1 %tobool.not.i.i5, label %_ZN7obj_refI4expr11ast_managerED2Ev.exit13, label %if.then.i.i.i6

if.then.i.i.i6:                                   ; preds = %_ZN7obj_refI4expr11ast_managerED2Ev.exit
  %m_manager.i.i7 = getelementptr inbounds i8, ptr %fml1, i64 8
  %8 = load ptr, ptr %m_manager.i.i7, align 8
  %m_ref_count.i.i.i.i8 = getelementptr inbounds i8, ptr %7, i64 8
  %9 = load i32, ptr %m_ref_count.i.i.i.i8, align 4
  %dec.i.i.i.i9 = add i32 %9, -1
  store i32 %dec.i.i.i.i9, ptr %m_ref_count.i.i.i.i8, align 4
  %cmp.i.i.i10 = icmp eq i32 %dec.i.i.i.i9, 0
  br i1 %cmp.i.i.i10, label %if.then2.i.i.i11, label %_ZN7obj_refI4expr11ast_managerED2Ev.exit13

if.then2.i.i.i11:                                 ; preds = %if.then.i.i.i6
  invoke void @_ZN11ast_manager11delete_nodeEP3ast(ptr noundef nonnull align 8 dereferenceable(976) %8, ptr noundef nonnull %7)
          to label %_ZN7obj_refI4expr11ast_managerED2Ev.exit13 unwind label %terminate.lpad.i12

terminate.lpad.i12:                               ; preds = %if.then2.i.i.i11
  %10 = landingpad { ptr, i32 }
          catch ptr null
  %11 = extractvalue { ptr, i32 } %10, 0
  call void @__clang_call_terminate(ptr %11) #17
  unreachable

_ZN7obj_refI4expr11ast_managerED2Ev.exit13:       ; preds = %_ZN7obj_refI4expr11ast_managerED2Ev.exit, %if.then.i.i.i6, %if.then2.i.i.i11
  ret void

lpad:                                             ; preds = %entry
  %12 = landingpad { ptr, i32 }
          cleanup
  br label %ehcleanup

lpad2:                                            ; preds = %invoke.cont4, %invoke.cont3, %invoke.cont
  %13 = landingpad { ptr, i32 }
          cleanup
  call void @_ZN7obj_refI4expr11ast_managerED2Ev(ptr noundef nonnull align 8 dereferenceable(16) %fml2) #16
  br label %ehcleanup

ehcleanup:                                        ; preds = %lpad2, %lpad
  %.pn = phi { ptr, i32 } [ %13, %lpad2 ], [ %12, %lpad ]
  call void @_ZN7obj_refI4expr11ast_managerED2Ev(ptr noundef nonnull align 8 dereferenceable(16) %fml1) #16
  resume { ptr, i32 } %.pn
}